target datalayout = "e-m:e-p270:32:32-p271:32:32-p272:64:64-i64:64-i128:128-f80:128-n8:16:32:64-S128"
target triple = "x86_64-unknown-linux-gnu"

%"class.std::ios_base" = type { ptr, i64, i64, i32, i32, i32, ptr, %"struct.std::ios_base::_Words", [8 x %"struct.std::ios_base::_Words"], i32, ptr, %"class.std::locale" }
%"struct.std::ios_base::_Words" = type { ptr, i64 }
%"class.std::locale" = type { ptr }
%"struct.openvdb::v11_0::io::(anonymous namespace)::StreamState" = type { i32, i32, i32, i32, i32, i32, i32, i32, i32, i32, i32 }
%struct.OnExit = type { ptr, ptr }

@__dso_handle = external hidden global i8
@_ZZN7openvdb5v11_02io12_GLOBAL__N_113GetSteamStateEvE12sStreamState = internal global %"struct.openvdb::v11_0::io::(anonymous namespace)::StreamState" zeroinitializer, align 4
@_ZGVZN7openvdb5v11_02io12_GLOBAL__N_113GetSteamStateEvE12sStreamState = internal global i64 0, align 8

; Function Attrs: mustprogress uwtable
define linkonce_odr noundef nonnull align 8 dereferenceable(8) ptr @_ZNSt8ios_base5pwordEi(ptr noundef nonnull align 8 dereferenceable(216) %this, i32 noundef %__ix) #4 comdat align 2 {
entry:
  %this.addr = alloca ptr, align 8
  %__ix.addr = alloca i32, align 4
  %__word = alloca ptr, align 8
  store ptr %this, ptr %this.addr, align 8
  store i32 %__ix, ptr %__ix.addr, align 4
  %this1 = load ptr, ptr %this.addr, align 8
  %0 = load i32, ptr %__ix.addr, align 4
  %_M_word_size = getelementptr inbounds %"class.std::ios_base", ptr %this1, i32 0, i32 9
  %1 = load i32, ptr %_M_word_size, align 8
  %cmp = icmp ult i32 %0, %1
  br i1 %cmp, label %cond.true, label %cond.false

cond.true:                                        ; preds = %entry
  %_M_word = getelementptr inbounds %"class.std::ios_base", ptr %this1, i32 0, i32 10
  %2 = load ptr, ptr %_M_word, align 8
  %3 = load i32, ptr %__ix.addr, align 4
  %idxprom = sext i32 %3 to i64
  %arrayidx = getelementptr inbounds %"struct.std::ios_base::_Words", ptr %2, i64 %idxprom
  br label %cond.end

cond.false:                                       ; preds = %entry
  %4 = load i32, ptr %__ix.addr, align 4
  %call = call noundef nonnull align 8 dereferenceable(16) ptr @_ZNSt8ios_base13_M_grow_wordsEib(ptr noundef nonnull align 8 dereferenceable(216) %this1, i32 noundef %4, i1 noundef zeroext false)
  br label %cond.end

cond.end:                                         ; preds = %cond.false, %cond.true
  %cond-lvalue = phi ptr [ %arrayidx, %cond.true ], [ %call, %cond.false ]
  store ptr %cond-lvalue, ptr %__word, align 8
  %5 = load ptr, ptr %__word, align 8
  %_M_pword = getelementptr inbounds %"struct.std::ios_base::_Words", ptr %5, i32 0, i32 0
  ret ptr %_M_pword
}

; Function Attrs: mustprogress uwtable
define internal noundef nonnull align 4 dereferenceable(44) ptr @_ZN7openvdb5v11_02io12_GLOBAL__N_113GetSteamStateEv() #4 personality ptr @__gxx_personality_v0 {
entry:
  %exn.slot = alloca ptr, align 8
  %ehselector.slot = alloca i32, align 4
  %0 = load atomic i8, ptr @_ZGVZN7openvdb5v11_02io12_GLOBAL__N_113GetSteamStateEvE12sStreamState acquire, align 8
  %guard.uninitialized = icmp eq i8 %0, 0
  br i1 %guard.uninitialized, label %init.check, label %init.end, !prof !6

init.check:                                       ; preds = %entry
  %1 = call i32 @__cxa_guard_acquire(ptr @_ZGVZN7openvdb5v11_02io12_GLOBAL__N_113GetSteamStateEvE12sStreamState) #3
  %tobool = icmp ne i32 %1, 0
  br i1 %tobool, label %init, label %init.end

init:                                             ; preds = %init.check
  invoke void @_ZN7openvdb5v11_02io12_GLOBAL__N_111StreamStateC2Ev(ptr noundef nonnull align 4 dereferenceable(44) @_ZZN7openvdb5v11_02io12_GLOBAL__N_113GetSteamStateEvE12sStreamState)
          to label %invoke.cont unwind label %lpad

invoke.cont:                                      ; preds = %init
  %2 = call i32 @__cxa_atexit(ptr @_ZN7openvdb5v11_02io12_GLOBAL__N_111StreamStateD2Ev, ptr @_ZZN7openvdb5v11_02io12_GLOBAL__N_113GetSteamStateEvE12sStreamState, ptr @__dso_handle) #3
  call void @__cxa_guard_release(ptr @_ZGVZN7openvdb5v11_02io12_GLOBAL__N_113GetSteamStateEvE12sStreamState) #3
  br label %init.end

init.end:                                         ; preds = %invoke.cont, %init.check, %entry
  ret ptr @_ZZN7openvdb5v11_02io12_GLOBAL__N_113GetSteamStateEvE12sStreamState

lpad:                                             ; preds = %init
  %3 = landingpad { ptr, i32 }
          cleanup
  %4 = extractvalue { ptr, i32 } %3, 0
  store ptr %4, ptr %exn.slot, align 8
  %5 = extractvalue { ptr, i32 } %3, 1
  store i32 %5, ptr %ehselector.slot, align 4
  call void @__cxa_guard_abort(ptr @_ZGVZN7openvdb5v11_02io12_GLOBAL__N_113GetSteamStateEvE12sStreamState) #3
  br label %eh.resume

eh.resume:                                        ; preds = %lpad
  %exn = load ptr, ptr %exn.slot, align 8
  %sel = load i32, ptr %ehselector.slot, align 4
  %lpad.val = insertvalue { ptr, i32 } poison, ptr %exn, 0
  %lpad.val1 = insertvalue { ptr, i32 } %lpad.val, i32 %sel, 1
  resume { ptr, i32 } %lpad.val1
}

; Function Attrs: mustprogress nounwind uwtable
define internal void @_ZZNK7openvdb5v11_02io7Archive9writeGridERNS1_14GridDescriptorESt10shared_ptrIKNS0_8GridBaseEERSobEN6OnExitD2Ev(ptr noundef nonnull align 8 dereferenceable(16) %this) unnamed_addr #5 align 2 personality ptr @__gxx_personality_v0 {
entry:
  %this.addr = alloca ptr, align 8
  store ptr %this, ptr %this.addr, align 8
  %this1 = load ptr, ptr %this.addr, align 8
  %ptr = getelementptr inbounds %struct.OnExit, ptr %this1, i32 0, i32 1
  %0 = load ptr, ptr %ptr, align 8
  %strm = getelementptr inbounds %struct.OnExit, ptr %this1, i32 0, i32 0
  %1 = load ptr, ptr %strm, align 8
  %call = invoke noundef nonnull align 4 dereferenceable(44) ptr @_ZN7openvdb5v11_02io12_GLOBAL__N_113GetSteamStateEv()
          to label %invoke.cont unwind label %terminate.lpad

invoke.cont:                                      ; preds = %entry
  %metadata = getelementptr inbounds %"struct.openvdb::v11_0::io::(anonymous namespace)::StreamState", ptr %call, i32 0, i32 10
  %2 = load i32, ptr %metadata, align 4
  %call3 = invoke noundef nonnull align 8 dereferenceable(8) ptr @_ZNSt8ios_base5pwordEi(ptr noundef nonnull align 8 dereferenceable(216) %1, i32 noundef %2)
          to label %invoke.cont2 unwind label %terminate.lpad

invoke.cont2:                                     ; preds = %invoke.cont
  store ptr %0, ptr %call3, align 8
  ret void

terminate.lpad:                                   ; preds = %invoke.cont, %entry
  %3 = landingpad { ptr, i32 }
          catch ptr null
  %4 = extractvalue { ptr, i32 } %3, 0
  call void @__clang_call_terminate(ptr %4) #25
  unreachable
}